target datalayout = "e-m:e-p270:32:32-p271:32:32-p272:64:64-i64:64-i128:128-f80:128-n8:16:32:64-S128"
target triple = "x86_64-pc-linux-gnu"

@.str = private unnamed_addr constant [33 x i8] c"../openssl/crypto/cmp/cmp_util.c\00", align 1

; Function Attrs: nounwind uwtable
define ptr @ossl_cmp_log_parse_metadata(ptr noundef %0, ptr noundef %1, ptr noundef %2, ptr noundef %3, ptr noundef %4) #0 {
  %6 = alloca ptr, align 8
  %7 = alloca ptr, align 8
  %8 = alloca ptr, align 8
  %9 = alloca ptr, align 8
  %10 = alloca ptr, align 8
  %11 = alloca ptr, align 8
  %12 = alloca ptr, align 8
  %13 = alloca ptr, align 8
  %14 = alloca ptr, align 8
  %15 = alloca ptr, align 8
  %16 = alloca ptr, align 8
  %17 = alloca i64, align 8
  store ptr %0, ptr %6, align 8, !tbaa !3
  store ptr %1, ptr %7, align 8, !tbaa !8
  store ptr %2, ptr %8, align 8, !tbaa !10
  store ptr %3, ptr %9, align 8, !tbaa !10
  store ptr %4, ptr %10, align 8, !tbaa !8
  call void @llvm.lifetime.start.p0(i64 8, ptr %11) #7
  %18 = load ptr, ptr %6, align 8, !tbaa !3
  store ptr %18, ptr %11, align 8, !tbaa !3
  call void @llvm.lifetime.start.p0(i64 8, ptr %12) #7
  %19 = load ptr, ptr %6, align 8, !tbaa !3
  %20 = icmp eq ptr %19, null
  br i1 %20, label %21, label %22

21:                                               ; preds = %5
  br label %25

22:                                               ; preds = %5
  %23 = load ptr, ptr %6, align 8, !tbaa !3
  %24 = call ptr @strchr(ptr noundef %23, i32 noundef 58) #8
  br label %25

25:                                               ; preds = %22, %21
  %26 = phi ptr [ null, %21 ], [ %24, %22 ]
  store ptr %26, ptr %12, align 8, !tbaa !3
  call void @llvm.lifetime.start.p0(i64 8, ptr %13) #7
  %27 = load ptr, ptr %6, align 8, !tbaa !3
  store ptr %27, ptr %13, align 8, !tbaa !3
  call void @llvm.lifetime.start.p0(i64 8, ptr %14) #7
  %28 = load ptr, ptr %6, align 8, !tbaa !3
  store ptr %28, ptr %14, align 8, !tbaa !3
  %29 = load ptr, ptr %7, align 8, !tbaa !8
  store i32 -1, ptr %29, align 4, !tbaa !12
  %30 = load ptr, ptr %8, align 8, !tbaa !10
  store ptr null, ptr %30, align 8, !tbaa !3
  %31 = load ptr, ptr %9, align 8, !tbaa !10
  store ptr null, ptr %31, align 8, !tbaa !3
  %32 = load ptr, ptr %10, align 8, !tbaa !8
  store i32 0, ptr %32, align 4, !tbaa !12
  %33 = load ptr, ptr %12, align 8, !tbaa !3
  %34 = icmp ne ptr %33, null
  br i1 %34, label %35, label %105

35:                                               ; preds = %25
  call void @llvm.lifetime.start.p0(i64 8, ptr %15) #7
  %36 = load ptr, ptr %12, align 8, !tbaa !3
  %37 = getelementptr inbounds nuw i8, ptr %36, i32 1
  store ptr %37, ptr %12, align 8, !tbaa !3
  %38 = call ptr @strchr(ptr noundef %37, i32 noundef 58) #8
  store ptr %38, ptr %15, align 8, !tbaa !3
  %39 = load ptr, ptr %6, align 8, !tbaa !3
  %40 = call i32 @parse_level(ptr noundef %39)
  %41 = load ptr, ptr %7, align 8, !tbaa !8
  store i32 %40, ptr %41, align 4, !tbaa !12
  %42 = icmp slt i32 %40, 0
  br i1 %42, label %43, label %104

43:                                               ; preds = %35
  %44 = load ptr, ptr %15, align 8, !tbaa !3
  %45 = icmp ne ptr %44, null
  br i1 %45, label %46, label %104

46:                                               ; preds = %43
  call void @llvm.lifetime.start.p0(i64 8, ptr %16) #7
  %47 = load ptr, ptr %13, align 8, !tbaa !3
  store ptr %47, ptr %16, align 8, !tbaa !3
  call void @llvm.lifetime.start.p0(i64 8, ptr %17) #7
  %48 = load ptr, ptr %15, align 8, !tbaa !3
  %49 = getelementptr inbounds nuw i8, ptr %48, i32 1
  store ptr %49, ptr %15, align 8, !tbaa !3
  %50 = call i64 @strtol(ptr noundef %49, ptr noundef %16, i32 noundef 10) #7
  store i64 %50, ptr %17, align 8, !tbaa !14
  %51 = load ptr, ptr %16, align 8, !tbaa !3
  store ptr %51, ptr %13, align 8, !tbaa !3
  %52 = load ptr, ptr %13, align 8, !tbaa !3
  %53 = load ptr, ptr %15, align 8, !tbaa !3
  %54 = icmp ugt ptr %52, %53
  br i1 %54, label %55, label %103

55:                                               ; preds = %46
  %56 = load ptr, ptr %13, align 8, !tbaa !3
  %57 = getelementptr inbounds nuw i8, ptr %56, i32 1
  store ptr %57, ptr %13, align 8, !tbaa !3
  %58 = load i8, ptr %56, align 1, !tbaa !16
  %59 = sext i8 %58 to i32
  %60 = icmp eq i32 %59, 58
  br i1 %60, label %61, label %103

61:                                               ; preds = %55
  %62 = load ptr, ptr %13, align 8, !tbaa !3
  %63 = call i32 @parse_level(ptr noundef %62)
  %64 = load ptr, ptr %7, align 8, !tbaa !8
  store i32 %63, ptr %64, align 4, !tbaa !12
  %65 = icmp sge i32 %63, 0
  br i1 %65, label %66, label %102

66:                                               ; preds = %61
  %67 = load ptr, ptr %11, align 8, !tbaa !3
  %68 = load ptr, ptr %12, align 8, !tbaa !3
  %69 = getelementptr inbounds i8, ptr %68, i64 -1
  %70 = load ptr, ptr %11, align 8, !tbaa !3
  %71 = ptrtoint ptr %69 to i64
  %72 = ptrtoint ptr %70 to i64
  %73 = sub i64 %71, %72
  %74 = call noalias ptr @CRYPTO_strndup(ptr noundef %67, i64 noundef %73, ptr noundef @.str, i32 noundef 99)
  %75 = load ptr, ptr %8, align 8, !tbaa !10
  store ptr %74, ptr %75, align 8, !tbaa !3
  %76 = load ptr, ptr %12, align 8, !tbaa !3
  %77 = load ptr, ptr %15, align 8, !tbaa !3
  %78 = getelementptr inbounds i8, ptr %77, i64 -1
  %79 = load ptr, ptr %12, align 8, !tbaa !3
  %80 = ptrtoint ptr %78 to i64
  %81 = ptrtoint ptr %79 to i64
  %82 = sub i64 %80, %81
  %83 = call noalias ptr @CRYPTO_strndup(ptr noundef %76, i64 noundef %82, ptr noundef @.str, i32 noundef 100)
  %84 = load ptr, ptr %9, align 8, !tbaa !10
  store ptr %83, ptr %84, align 8, !tbaa !3
  %85 = load i64, ptr %17, align 8, !tbaa !14
  %86 = trunc i64 %85 to i32
  %87 = load ptr, ptr %10, align 8, !tbaa !8
  store i32 %86, ptr %87, align 4, !tbaa !12
  %88 = load ptr, ptr %13, align 8, !tbaa !3
  %89 = call ptr @strchr(ptr noundef %88, i32 noundef 58) #8
  store ptr %89, ptr %14, align 8, !tbaa !3
  %90 = load ptr, ptr %14, align 8, !tbaa !3
  %91 = icmp ne ptr %90, null
  br i1 %91, label %92, label %101

92:                                               ; preds = %66
  %93 = load ptr, ptr %14, align 8, !tbaa !3
  %94 = getelementptr inbounds nuw i8, ptr %93, i32 1
  store ptr %94, ptr %14, align 8, !tbaa !3
  %95 = load i8, ptr %94, align 1, !tbaa !16
  %96 = sext i8 %95 to i32
  %97 = icmp eq i32 %96, 32
  br i1 %97, label %98, label %101

98:                                               ; preds = %92
  %99 = load ptr, ptr %14, align 8, !tbaa !3
  %100 = getelementptr inbounds nuw i8, ptr %99, i32 1
  store ptr %100, ptr %14, align 8, !tbaa !3
  br label %101

101:                                              ; preds = %98, %92, %66
  br label %102

102:                                              ; preds = %101, %61
  br label %103

103:                                              ; preds = %102, %55, %46
  call void @llvm.lifetime.end.p0(i64 8, ptr %17) #7
  call void @llvm.lifetime.end.p0(i64 8, ptr %16) #7
  br label %104

104:                                              ; preds = %103, %43, %35
  call void @llvm.lifetime.end.p0(i64 8, ptr %15) #7
  br label %105

105:                                              ; preds = %104, %25
  %106 = load ptr, ptr %14, align 8, !tbaa !3
  call void @llvm.lifetime.end.p0(i64 8, ptr %14) #7
  call void @llvm.lifetime.end.p0(i64 8, ptr %13) #7
  call void @llvm.lifetime.end.p0(i64 8, ptr %12) #7
  call void @llvm.lifetime.end.p0(i64 8, ptr %11) #7
  ret ptr %106
}