; Function Attrs: nounwind uwtable
define ptr @ossl_cmp_log_parse_metadata(ptr noundef %0, ptr noundef writeonly captures(none) initializes((0, 4)) %1, ptr noundef writeonly captures(none) initializes((0, 8)) %2, ptr noundef writeonly captures(none) initializes((0, 8)) %3, ptr noundef writeonly captures(none) initializes((0, 4)) %4) local_unnamed_addr #1 {
  %6 = alloca ptr, align 8
  %7 = icmp eq ptr %0, null
  br i1 %7, label %.thread, label %8

.thread:                                          ; preds = %5
  store i32 -1, ptr %1, align 4, !tbaa !3
  store ptr null, ptr %2, align 8, !tbaa !7
  store ptr null, ptr %3, align 8, !tbaa !7
  store i32 0, ptr %4, align 4, !tbaa !3
  br label %45

8:                                                ; preds = %5
  %9 = tail call ptr @strchr(ptr noundef nonnull dereferenceable(1) %0, i32 noundef 58) #8
  store i32 -1, ptr %1, align 4, !tbaa !3
  store ptr null, ptr %2, align 8, !tbaa !7
  store ptr null, ptr %3, align 8, !tbaa !7
  store i32 0, ptr %4, align 4, !tbaa !3
  %.not = icmp eq ptr %9, null
  br i1 %.not, label %45, label %10

10:                                               ; preds = %8
  %11 = getelementptr inbounds nuw i8, ptr %9, i64 1
  %12 = tail call ptr @strchr(ptr noundef nonnull dereferenceable(1) %11, i32 noundef 58) #8
  %13 = tail call fastcc i32 @parse_level(ptr noundef nonnull %0)
  store i32 %13, ptr %1, align 4, !tbaa !3
  %14 = icmp slt i32 %13, 0
  %15 = icmp ne ptr %12, null
  %or.cond = select i1 %14, i1 %15, i1 false
  br i1 %or.cond, label %16, label %45

16:                                               ; preds = %10
  call void @llvm.lifetime.start.p0(i64 8, ptr nonnull %6) #7
  store ptr %0, ptr %6, align 8, !tbaa !7
  %17 = getelementptr inbounds nuw i8, ptr %12, i64 1
  %18 = call i64 @strtol(ptr noundef nonnull %17, ptr noundef nonnull %6, i32 noundef 10) #7
  %19 = load ptr, ptr %6, align 8, !tbaa !7
  %20 = icmp ugt ptr %19, %17
  br i1 %20, label %21, label %44

21:                                               ; preds = %16
  %22 = getelementptr inbounds nuw i8, ptr %19, i64 1
  %23 = load i8, ptr %19, align 1, !tbaa !10
  %24 = icmp eq i8 %23, 58
  br i1 %24, label %25, label %44

25:                                               ; preds = %21
  %26 = tail call fastcc i32 @parse_level(ptr noundef nonnull %22)
  store i32 %26, ptr %1, align 4, !tbaa !3
  %27 = icmp sgt i32 %26, -1
  br i1 %27, label %28, label %44

28:                                               ; preds = %25
  %29 = ptrtoint ptr %9 to i64
  %30 = ptrtoint ptr %0 to i64
  %31 = sub i64 %29, %30
  %32 = tail call noalias ptr @CRYPTO_strndup(ptr noundef nonnull %0, i64 noundef %31, ptr noundef nonnull @.str, i32 noundef 99) #7
  store ptr %32, ptr %2, align 8, !tbaa !7
  %33 = ptrtoint ptr %12 to i64
  %34 = ptrtoint ptr %11 to i64
  %35 = sub i64 %33, %34
  %36 = tail call noalias ptr @CRYPTO_strndup(ptr noundef nonnull %11, i64 noundef %35, ptr noundef nonnull @.str, i32 noundef 100) #7
  store ptr %36, ptr %3, align 8, !tbaa !7
  %37 = trunc i64 %18 to i32
  store i32 %37, ptr %4, align 4, !tbaa !3
  %38 = tail call ptr @strchr(ptr noundef nonnull dereferenceable(1) %22, i32 noundef 58) #8
  %.not43 = icmp eq ptr %38, null
  br i1 %.not43, label %44, label %39

39:                                               ; preds = %28
  %40 = getelementptr inbounds nuw i8, ptr %38, i64 1
  %41 = load i8, ptr %40, align 1, !tbaa !10
  %42 = icmp eq i8 %41, 32
  %43 = getelementptr inbounds nuw i8, ptr %38, i64 2
  %spec.select = select i1 %42, ptr %43, ptr %40
  br label %44

44:                                               ; preds = %39, %25, %28, %21, %16
  %.2 = phi ptr [ null, %28 ], [ %0, %25 ], [ %0, %21 ], [ %0, %16 ], [ %spec.select, %39 ]
  call void @llvm.lifetime.end.p0(i64 8, ptr nonnull %6) #7
  br label %45

45:                                               ; preds = %.thread, %10, %44, %8
  %.0 = phi ptr [ %0, %8 ], [ %.2, %44 ], [ %0, %10 ], [ null, %.thread ]
  ret ptr %.0
}